(dp1
S'OriginalConfig'
p2
ccopy_reg
_reconstructor
p3
(cWMCore.Configuration
Configuration
p4
c__builtin__
object
p5
NtRp6
(dp7
S'Site'
p8
g3
(cWMCore.Configuration
ConfigSection
p9
g5
NtRp10
(dp11
S'_internal_skipChecks'
p12
I00
sS'_internal_documentation'
p13
S''
sS'_internal_settings'
p14
c__builtin__
set
p15
((lp16
S'whitelist'
p17
aS'storageSite'
p18
atRp19
sS'_internal_name'
p20
g8
sS'_internal_docstrings'
p21
(dp22
sS'_internal_children'
p23
g15
((ltRp24
sg18
S'T3_US_FNALLPC'
p25
sS'_internal_parent_ref'
p26
Nsg17
(lp27
S'T2_US*'
p28
asbsS'_internal_sections'
p29
(lp30
S'General'
p31
aS'JobType'
p32
aS'Data'
p33
ag8
aS'User'
p34
aS'Debug'
p35
asg31
g3
(g9
g5
NtRp36
(dp37
S'transferLogs'
p38
I00
sg12
I00
sg13
S''
sg14
g15
((lp39
g38
aS'workArea'
p40
aS'requestName'
p41
atRp42
sg20
g31
sg21
(dp43
sg23
g15
((ltRp44
sg41
S'Data_MuonEG_C'
p45
sg26
Nsg40
S'crabsubmits_2018_LLDJ_prac'
p46
sbsS'_internal_webapps'
p47
(lp48
sg34
g3
(g9
g5
NtRp49
(dp50
g12
I00
sg13
S''
sg14
g15
((ltRp51
sg20
g34
sg21
(dp52
sg23
g15
((ltRp53
sg26
NsbsS'_internal_components'
p54
(lp55
sg35
g3
(g9
g5
NtRp56
(dp57
g12
I00
sg13
S''
sg14
g15
((ltRp58
sg20
g35
sg21
(dp59
sg23
g15
((ltRp60
sg26
Nsbsg33
g3
(g9
g5
NtRp61
(dp62
S'inputDataset'
p63
S'/MuonEG/Run2018C-17Sep2018-v1/AOD'
p64
sg12
I00
sS'splitting'
p65
S'Automatic'
p66
sS'unitsPerJob'
p67
I180
sg13
S''
sg14
g15
((lp68
g63
aS'publication'
p69
ag67
aS'ignoreLocality'
p70
aS'inputDBS'
p71
ag65
aS'outLFNDirBase'
p72
aS'lumiMask'
p73
aS'totalUnits'
p74
atRp75
sg70
I01
sg20
g33
sg71
S'global'
p76
sg21
(dp77
sg23
g15
((ltRp78
sg69
I00
sg72
S'/store/group/lpchbb/LLDJntuples/2018_LLDJ_prac'
p79
sg26
Nsg73
S'/uscms/home/skim2/nobackup/2018-LLDJ_slc6_700_CMSSW_10_2_15/src/2018lldj/ntuples/config/jsons/Cert_314472-325175_13TeV_PromptReco_Collisions18_JSON.txt'
p80
sg74
I-1
sbsg32
g3
(g9
g5
NtRp81
(dp82
S'numCores'
p83
I4
sg12
I00
sS'maxMemoryMB'
p84
I3000
sg13
S''
sg14
g15
((lp85
g83
ag84
aS'pluginName'
p86
aS'allowUndistributedCMSSW'
p87
aS'psetName'
p88
aS'sendExternalFolder'
p89
atRp90
sg20
g32
sg21
(dp91
sg86
S'Analysis'
p92
sg23
g15
((ltRp93
sg87
I01
sg88
S'run_data_102XAOD.py'
p94
sg26
Nsg89
I01
sbsbsS'voGroup'
p95
S''
sS'Server'
p96
S'cmsweb.cern.ch'
p97
sS'instance'
p98
S'prod'
p99
sS'RequestName'
p100
V190610_020020:suho_crab_Data_MuonEG_C
p101
sS'voRole'
p102
S'NULL'
p103
sS'Port'
p104
S''
s.