(dp1
S'OriginalConfig'
p2
ccopy_reg
_reconstructor
p3
(cWMCore.Configuration
Configuration
p4
c__builtin__
object
p5
NtRp6
(dp7
S'Site'
p8
g3
(cWMCore.Configuration
ConfigSection
p9
g5
NtRp10
(dp11
S'_internal_skipChecks'
p12
I00
sS'_internal_documentation'
p13
S''
sS'_internal_settings'
p14
c__builtin__
set
p15
((lp16
S'whitelist'
p17
aS'storageSite'
p18
atRp19
sS'_internal_name'
p20
g8
sS'_internal_docstrings'
p21
(dp22
sS'_internal_children'
p23
g15
((ltRp24
sg18
S'T3_US_FNALLPC'
p25
sS'_internal_parent_ref'
p26
Nsg17
(lp27
S'T2_US*'
p28
asbsS'_internal_sections'
p29
(lp30
S'General'
p31
aS'JobType'
p32
aS'Data'
p33
ag8
aS'User'
p34
aS'Debug'
p35
asg31
g3
(g9
g5
NtRp36
(dp37
S'transferLogs'
p38
I00
sg12
I00
sg13
S''
sg14
g15
((lp39
g38
aS'workArea'
p40
aS'requestName'
p41
atRp42
sg20
g31
sg21
(dp43
sg23
g15
((ltRp44
sg41
S'ZZ'
p45
sg26
Nsg40
S'crabsubmits_2018_LLDJ_prac'
p46
sbsS'_internal_webapps'
p47
(lp48
sg34
g3
(g9
g5
NtRp49
(dp50
g12
I00
sg13
S''
sg14
g15
((ltRp51
sg20
g34
sg21
(dp52
sg23
g15
((ltRp53
sg26
NsbsS'_internal_components'
p54
(lp55
sg35
g3
(g9
g5
NtRp56
(dp57
g12
I00
sg13
S''
sg14
g15
((ltRp58
sg20
g35
sg21
(dp59
sg23
g15
((ltRp60
sg26
Nsbsg33
g3
(g9
g5
NtRp61
(dp62
S'inputDataset'
p63
S'/ZZ_TuneCP5_13TeV-pythia8/RunIIAutumn18DRPremix-102X_upgrade2018_realistic_v15-v2/AODSIM'
p64
sg12
I00
sS'splitting'
p65
S'FileBased'
p66
sS'unitsPerJob'
p67
I1
sg13
S''
sg14
g15
((lp68
g63
aS'publication'
p69
ag67
aS'ignoreLocality'
p70
aS'inputDBS'
p71
ag65
aS'outLFNDirBase'
p72
aS'totalUnits'
p73
atRp74
sg70
I01
sg20
g33
sg71
S'global'
p75
sg21
(dp76
sg23
g15
((ltRp77
sg69
I00
sg72
S'/store/group/lpchbb/LLDJntuples/2018_LLDJ_prac'
p78
sg26
Nsg73
I-1
sbsg32
g3
(g9
g5
NtRp79
(dp80
S'numCores'
p81
I4
sg12
I00
sS'maxMemoryMB'
p82
I4000
sg13
S''
sg14
g15
((lp83
g81
ag82
aS'pluginName'
p84
aS'allowUndistributedCMSSW'
p85
aS'psetName'
p86
aS'sendExternalFolder'
p87
atRp88
sg20
g32
sg21
(dp89
sg84
S'Analysis'
p90
sg23
g15
((ltRp91
sg85
I01
sg86
S'run_mc_102XAOD.py'
p92
sg26
Nsg87
I01
sbsbsS'voGroup'
p93
S''
sS'Server'
p94
S'cmsweb.cern.ch'
p95
sS'instance'
p96
S'prod'
p97
sS'RequestName'
p98
V190610_190526:suho_crab_ZZ
p99
sS'voRole'
p100
S'NULL'
p101
sS'Port'
p102
S''
s.